target datalayout = "e-m:e-p270:32:32-p271:32:32-p272:64:64-i64:64-i128:128-f80:128-n8:16:32:64-S128"
target triple = "x86_64-pc-linux-gnu"

%struct.AVFilterLink = type { ptr, ptr, ptr, ptr, i32, i32, i32, i32, %struct.AVRational, i32, i32, i32, %struct.AVChannelLayout, %struct.AVRational, ptr, i32, %struct.AVFilterFormatsConfig, %struct.AVFilterFormatsConfig }
%struct.AVChannelLayout = type { i32, i32, %union.anon.1, ptr }
%union.anon.1 = type { i64 }
%struct.AVRational = type { i32, i32 }
%struct.AVFilterFormatsConfig = type { ptr, ptr, ptr, ptr, ptr }
%struct.AVFilterContext = type { ptr, ptr, ptr, ptr, ptr, i32, ptr, ptr, i32, ptr, ptr, i32, i32, ptr, ptr, ptr, ptr, i32, ptr, i32, i32 }
%struct.ColorkeyContext = type { ptr, [4 x i8], [4 x i8], float, float, double, i32, i32, ptr }
%struct.AVPixFmtDescriptor = type { ptr, i8, i8, i8, i64, [4 x %struct.AVComponentDescriptor], ptr }
%struct.AVComponentDescriptor = type { i32, i32, i32, i32, i32 }
%struct.AVFilter = type { ptr, ptr, ptr, ptr, ptr, i32 }

@.str = private unnamed_addr constant [9 x i8] c"colorkey\00", align 1

; Function Attrs: cold nounwind optsize uwtable
define internal i32 @config_output(ptr noundef %0) #4 {
  %2 = alloca ptr, align 8
  %3 = alloca ptr, align 8
  %4 = alloca ptr, align 8
  %5 = alloca ptr, align 8
  store ptr %0, ptr %2, align 8, !tbaa !4
  call void @llvm.lifetime.start.p0(i64 8, ptr %3) #8
  %6 = load ptr, ptr %2, align 8, !tbaa !4
  %7 = getelementptr inbounds nuw %struct.AVFilterLink, ptr %6, i32 0, i32 0
  %8 = load ptr, ptr %7, align 8, !tbaa !48
  store ptr %8, ptr %3, align 8, !tbaa !23
  call void @llvm.lifetime.start.p0(i64 8, ptr %4) #8
  %9 = load ptr, ptr %3, align 8, !tbaa !23
  %10 = getelementptr inbounds nuw %struct.AVFilterContext, ptr %9, i32 0, i32 9
  %11 = load ptr, ptr %10, align 8, !tbaa !24
  store ptr %11, ptr %4, align 8, !tbaa !34
  call void @llvm.lifetime.start.p0(i64 8, ptr %5) #8
  %12 = load ptr, ptr %3, align 8, !tbaa !23
  %13 = getelementptr inbounds nuw %struct.AVFilterContext, ptr %12, i32 0, i32 4
  %14 = load ptr, ptr %13, align 8, !tbaa !49
  %15 = getelementptr inbounds ptr, ptr %14, i64 0
  %16 = load ptr, ptr %15, align 8, !tbaa !4
  %17 = getelementptr inbounds nuw %struct.AVFilterLink, ptr %16, i32 0, i32 5
  %18 = load i32, ptr %17, align 4, !tbaa !50
  %19 = call ptr @av_pix_fmt_desc_get(i32 noundef %18)
  store ptr %19, ptr %5, align 8, !tbaa !51
  %20 = load ptr, ptr %5, align 8, !tbaa !51
  %21 = getelementptr inbounds nuw %struct.AVPixFmtDescriptor, ptr %20, i32 0, i32 5
  %22 = getelementptr inbounds [4 x %struct.AVComponentDescriptor], ptr %21, i64 0, i64 0
  %23 = getelementptr inbounds nuw %struct.AVComponentDescriptor, ptr %22, i32 0, i32 4
  %24 = load i32, ptr %23, align 8, !tbaa !53
  %25 = load ptr, ptr %4, align 8, !tbaa !34
  %26 = getelementptr inbounds nuw %struct.ColorkeyContext, ptr %25, i32 0, i32 6
  store i32 %24, ptr %26, align 8, !tbaa !55
  %27 = load ptr, ptr %4, align 8, !tbaa !34
  %28 = getelementptr inbounds nuw %struct.ColorkeyContext, ptr %27, i32 0, i32 6
  %29 = load i32, ptr %28, align 8, !tbaa !55
  %30 = shl i32 1, %29
  %31 = sub nsw i32 %30, 1
  %32 = load ptr, ptr %4, align 8, !tbaa !34
  %33 = getelementptr inbounds nuw %struct.ColorkeyContext, ptr %32, i32 0, i32 7
  store i32 %31, ptr %33, align 4, !tbaa !56
  %34 = load ptr, ptr %4, align 8, !tbaa !34
  %35 = getelementptr inbounds nuw %struct.ColorkeyContext, ptr %34, i32 0, i32 7
  %36 = load i32, ptr %35, align 4, !tbaa !56
  %37 = sitofp i32 %36 to double
  %38 = fdiv nsz double 2.550000e+02, %37
  %39 = load ptr, ptr %4, align 8, !tbaa !34
  %40 = getelementptr inbounds nuw %struct.ColorkeyContext, ptr %39, i32 0, i32 5
  store double %38, ptr %40, align 8, !tbaa !57
  %41 = load ptr, ptr %3, align 8, !tbaa !23
  %42 = getelementptr inbounds nuw %struct.AVFilterContext, ptr %41, i32 0, i32 4
  %43 = load ptr, ptr %42, align 8, !tbaa !49
  %44 = getelementptr inbounds ptr, ptr %43, i64 0
  %45 = load ptr, ptr %44, align 8, !tbaa !4
  %46 = getelementptr inbounds nuw %struct.AVFilterLink, ptr %45, i32 0, i32 6
  %47 = load i32, ptr %46, align 8, !tbaa !58
  %48 = load ptr, ptr %2, align 8, !tbaa !4
  %49 = getelementptr inbounds nuw %struct.AVFilterLink, ptr %48, i32 0, i32 6
  store i32 %47, ptr %49, align 8, !tbaa !58
  %50 = load ptr, ptr %3, align 8, !tbaa !23
  %51 = getelementptr inbounds nuw %struct.AVFilterContext, ptr %50, i32 0, i32 4
  %52 = load ptr, ptr %51, align 8, !tbaa !49
  %53 = getelementptr inbounds ptr, ptr %52, i64 0
  %54 = load ptr, ptr %53, align 8, !tbaa !4
  %55 = getelementptr inbounds nuw %struct.AVFilterLink, ptr %54, i32 0, i32 7
  %56 = load i32, ptr %55, align 4, !tbaa !59
  %57 = load ptr, ptr %2, align 8, !tbaa !4
  %58 = getelementptr inbounds nuw %struct.AVFilterLink, ptr %57, i32 0, i32 7
  store i32 %56, ptr %58, align 4, !tbaa !59
  %59 = load ptr, ptr %2, align 8, !tbaa !4
  %60 = getelementptr inbounds nuw %struct.AVFilterLink, ptr %59, i32 0, i32 13
  %61 = load ptr, ptr %3, align 8, !tbaa !23
  %62 = getelementptr inbounds nuw %struct.AVFilterContext, ptr %61, i32 0, i32 4
  %63 = load ptr, ptr %62, align 8, !tbaa !49
  %64 = getelementptr inbounds ptr, ptr %63, i64 0
  %65 = load ptr, ptr %64, align 8, !tbaa !4
  %66 = getelementptr inbounds nuw %struct.AVFilterLink, ptr %65, i32 0, i32 13
  call void @llvm.memcpy.p0.p0.i64(ptr align 8 %60, ptr align 8 %66, i64 8, i1 false), !tbaa.struct !60
  %67 = load ptr, ptr %4, align 8, !tbaa !34
  %68 = getelementptr inbounds nuw %struct.ColorkeyContext, ptr %67, i32 0, i32 1
  %69 = getelementptr inbounds [4 x i8], ptr %68, i64 0, i64 0
  %70 = load ptr, ptr %2, align 8, !tbaa !4
  %71 = getelementptr inbounds nuw %struct.AVFilterLink, ptr %70, i32 0, i32 5
  %72 = load i32, ptr %71, align 4, !tbaa !50
  %73 = call i32 @ff_fill_rgba_map(ptr noundef %69, i32 noundef %72)
  %74 = load ptr, ptr %3, align 8, !tbaa !23
  %75 = getelementptr inbounds nuw %struct.AVFilterContext, ptr %74, i32 0, i32 1
  %76 = load ptr, ptr %75, align 8, !tbaa !61
  %77 = getelementptr inbounds nuw %struct.AVFilter, ptr %76, i32 0, i32 0
  %78 = load ptr, ptr %77, align 8, !tbaa !62
  %79 = call i32 @strcmp(ptr noundef %78, ptr noundef @.str) #9
  %80 = icmp ne i32 %79, 0
  br i1 %80, label %89, label %81

81:                                               ; preds = %1
  %82 = load ptr, ptr %4, align 8, !tbaa !34
  %83 = getelementptr inbounds nuw %struct.ColorkeyContext, ptr %82, i32 0, i32 7
  %84 = load i32, ptr %83, align 4, !tbaa !56
  %85 = icmp eq i32 %84, 255
  %86 = select i1 %85, ptr @do_colorkey_slice8, ptr @do_colorkey_slice16
  %87 = load ptr, ptr %4, align 8, !tbaa !34
  %88 = getelementptr inbounds nuw %struct.ColorkeyContext, ptr %87, i32 0, i32 8
  store ptr %86, ptr %88, align 8, !tbaa !36
  br label %97

89:                                               ; preds = %1
  %90 = load ptr, ptr %4, align 8, !tbaa !34
  %91 = getelementptr inbounds nuw %struct.ColorkeyContext, ptr %90, i32 0, i32 7
  %92 = load i32, ptr %91, align 4, !tbaa !56
  %93 = icmp eq i32 %92, 255
  %94 = select i1 %93, ptr @do_colorhold_slice8, ptr @do_colorhold_slice16
  %95 = load ptr, ptr %4, align 8, !tbaa !34
  %96 = getelementptr inbounds nuw %struct.ColorkeyContext, ptr %95, i32 0, i32 8
  store ptr %94, ptr %96, align 8, !tbaa !36
  br label %97

97:                                               ; preds = %89, %81
  call void @llvm.lifetime.end.p0(i64 8, ptr %5) #8
  call void @llvm.lifetime.end.p0(i64 8, ptr %4) #8
  call void @llvm.lifetime.end.p0(i64 8, ptr %3) #8
  ret i32 0
}