; Function Attrs: cold nounwind optsize uwtable
define internal noundef i32 @config_output(ptr noundef captures(none) initializes((40, 48), (96, 104)) %0) #3 {
  %2 = load ptr, ptr %0, align 8, !tbaa !42
  %3 = getelementptr inbounds nuw i8, ptr %2, i64 72
  %4 = load ptr, ptr %3, align 8, !tbaa !19
  %5 = getelementptr inbounds nuw i8, ptr %2, i64 32
  %6 = load ptr, ptr %5, align 8, !tbaa !43
  %7 = load ptr, ptr %6, align 8, !tbaa !40
  %8 = getelementptr inbounds nuw i8, ptr %7, i64 36
  %9 = load i32, ptr %8, align 4, !tbaa !44
  %10 = tail call ptr @av_pix_fmt_desc_get(i32 noundef %9) #9
  %11 = getelementptr inbounds nuw i8, ptr %10, i64 40
  %12 = load i32, ptr %11, align 8, !tbaa !45
  %13 = getelementptr inbounds nuw i8, ptr %4, i64 32
  store i32 %12, ptr %13, align 8, !tbaa !47
  %notmask = shl nsw i32 -1, %12
  %14 = xor i32 %notmask, -1
  %15 = getelementptr inbounds nuw i8, ptr %4, i64 36
  store i32 %14, ptr %15, align 4, !tbaa !48
  %16 = uitofp nneg i32 %14 to double
  %17 = fdiv nsz double 2.550000e+02, %16
  %18 = getelementptr inbounds nuw i8, ptr %4, i64 24
  store double %17, ptr %18, align 8, !tbaa !49
  %19 = load ptr, ptr %5, align 8, !tbaa !43
  %20 = load ptr, ptr %19, align 8, !tbaa !40
  %21 = getelementptr inbounds nuw i8, ptr %20, i64 40
  %22 = load i32, ptr %21, align 8, !tbaa !50
  %23 = getelementptr inbounds nuw i8, ptr %0, i64 40
  store i32 %22, ptr %23, align 8, !tbaa !50
  %24 = getelementptr inbounds nuw i8, ptr %20, i64 44
  %25 = load i32, ptr %24, align 4, !tbaa !51
  %26 = getelementptr inbounds nuw i8, ptr %0, i64 44
  store i32 %25, ptr %26, align 4, !tbaa !51
  %27 = getelementptr inbounds nuw i8, ptr %0, i64 96
  %28 = getelementptr inbounds nuw i8, ptr %20, i64 96
  %29 = load i64, ptr %28, align 8
  store i64 %29, ptr %27, align 8
  %30 = getelementptr inbounds nuw i8, ptr %4, i64 8
  %31 = getelementptr inbounds nuw i8, ptr %0, i64 36
  %32 = load i32, ptr %31, align 4, !tbaa !44
  %33 = tail call i32 @ff_fill_rgba_map(ptr noundef nonnull %30, i32 noundef %32) #9
  %34 = getelementptr inbounds nuw i8, ptr %2, i64 8
  %35 = load ptr, ptr %34, align 8, !tbaa !52
  %36 = load ptr, ptr %35, align 8, !tbaa !53
  %37 = tail call i32 @strcmp(ptr noundef nonnull dereferenceable(1) %36, ptr noundef nonnull dereferenceable(9) @.str) #8
  %.not = icmp eq i32 %37, 0
  %38 = load i32, ptr %15, align 4, !tbaa !48
  %39 = icmp eq i32 %38, 255
  %40 = select i1 %39, ptr @do_colorkey_slice8, ptr @do_colorkey_slice16
  %41 = select i1 %39, ptr @do_colorhold_slice8, ptr @do_colorhold_slice16
  %.sink = select i1 %.not, ptr %40, ptr %41
  %42 = getelementptr inbounds nuw i8, ptr %4, i64 40
  store ptr %.sink, ptr %42, align 8, !tbaa !29
  ret i32 0
}